target datalayout = "e-m:e-p270:32:32-p271:32:32-p272:64:64-i64:64-i128:128-f80:128-n8:16:32:64-S128"
target triple = "x86_64-unknown-linux-gnu"

%class.btDiscreteDynamicsWorld = type <{ %class.btDynamicsWorld, %class.btAlignedObjectArray.0, ptr, ptr, ptr, %class.btAlignedObjectArray.0, %class.btAlignedObjectArray.4, %class.btVector3, float, float, i8, i8, i8, i8, [4 x i8], %class.btAlignedObjectArray.8, i32, i8, [3 x i8], %class.btAlignedObjectArray.12, %class.btSpinMutex, [4 x i8] }>
%class.btDynamicsWorld = type { %class.btCollisionWorld.base, ptr, ptr, ptr, %struct.btContactSolverInfo }
%class.btCollisionWorld.base = type <{ ptr, %class.btAlignedObjectArray, ptr, %struct.btDispatcherInfo, ptr, ptr, i8 }>
%class.btAlignedObjectArray = type <{ %class.btAlignedAllocator, [3 x i8], i32, i32, [4 x i8], ptr, i8, [7 x i8] }>
%class.btAlignedAllocator = type { i8 }
%struct.btDispatcherInfo = type <{ float, i32, i32, float, i8, [7 x i8], ptr, i8, i8, i8, i8, float, i8, [3 x i8], float, i8, [7 x i8] }>
%struct.btContactSolverInfo = type { %struct.btContactSolverInfoData }
%struct.btContactSolverInfoData = type { float, float, float, float, float, i32, float, float, float, float, float, float, float, float, float, float, i32, float, float, float, float, float, i32, i32, i32, float, float, float, float, i8, i8, i32, i32 }
%class.btAlignedObjectArray.0 = type <{ %class.btAlignedAllocator.1, [3 x i8], i32, i32, [4 x i8], ptr, i8, [7 x i8] }>
%class.btAlignedAllocator.1 = type { i8 }
%class.btAlignedObjectArray.4 = type <{ %class.btAlignedAllocator.5, [3 x i8], i32, i32, [4 x i8], ptr, i8, [7 x i8] }>
%class.btAlignedAllocator.5 = type { i8 }
%class.btVector3 = type { [4 x float] }
%class.btAlignedObjectArray.8 = type <{ %class.btAlignedAllocator.9, [3 x i8], i32, i32, [4 x i8], ptr, i8, [7 x i8] }>
%class.btAlignedAllocator.9 = type { i8 }
%class.btAlignedObjectArray.12 = type <{ %class.btAlignedAllocator.13, [3 x i8], i32, i32, [4 x i8], ptr, i8, [7 x i8] }>
%class.btAlignedAllocator.13 = type { i8 }
%class.btSpinMutex = type { i32 }
%class.btCollisionObject = type <{ ptr, %class.btTransform, %class.btTransform, %class.btVector3, %class.btVector3, %class.btVector3, i32, float, ptr, ptr, ptr, ptr, i32, i32, i32, i32, i32, float, float, float, float, float, float, float, i32, [4 x i8], ptr, i32, i32, i32, float, float, float, i32, [4 x i8], %class.btAlignedObjectArray.36, i32, %class.btVector3, [4 x i8] }>
%class.btTransform = type { %class.btMatrix3x3, %class.btVector3 }
%class.btMatrix3x3 = type { [3 x %class.btVector3] }
%class.btAlignedObjectArray.36 = type <{ %class.btAlignedAllocator.37, [3 x i8], i32, i32, [4 x i8], ptr, i8, [7 x i8] }>
%class.btAlignedAllocator.37 = type { i8 }
%class.btRigidBody = type { %class.btCollisionObject.base, %class.btMatrix3x3, %class.btVector3, %class.btVector3, float, %class.btVector3, %class.btVector3, %class.btVector3, %class.btVector3, %class.btVector3, %class.btVector3, float, float, i8, float, float, float, float, float, float, ptr, %class.btAlignedObjectArray.0, i32, i32, %class.btVector3, %class.btVector3, %class.btVector3, %class.btVector3, %class.btVector3, %class.btVector3, i32, i32 }
%class.btCollisionObject.base = type <{ ptr, %class.btTransform, %class.btTransform, %class.btVector3, %class.btVector3, %class.btVector3, i32, float, ptr, ptr, ptr, ptr, i32, i32, i32, i32, i32, float, float, float, float, float, float, float, i32, [4 x i8], ptr, i32, i32, i32, float, float, float, i32, [4 x i8], %class.btAlignedObjectArray.36, i32, %class.btVector3 }>

; Function Attrs: mustprogress nounwind uwtable
define linkonce_odr dso_local noundef i32 @_ZNK17btCollisionObject18getActivationStateEv(ptr noundef nonnull align 8 dereferenceable(372) %this) #1 comdat align 2 {
entry:
  %this.addr = alloca ptr, align 8
  store ptr %this, ptr %this.addr, align 8
  %this1 = load ptr, ptr %this.addr, align 8
  %m_activationState1 = getelementptr inbounds %class.btCollisionObject, ptr %this1, i32 0, i32 16
  %0 = load i32, ptr %m_activationState1, align 8
  ret i32 %0
}

; Function Attrs: mustprogress nounwind uwtable
define linkonce_odr dso_local noundef i32 @_ZNK11btRigidBody8getFlagsEv(ptr noundef nonnull align 8 dereferenceable(744) %this) #1 comdat align 2 {
entry:
  %this.addr = alloca ptr, align 8
  store ptr %this, ptr %this.addr, align 8
  %this1 = load ptr, ptr %this.addr, align 8
  %m_rigidbodyFlags = getelementptr inbounds %class.btRigidBody, ptr %this1, i32 0, i32 22
  %0 = load i32, ptr %m_rigidbodyFlags, align 8
  ret i32 %0
}

; Function Attrs: mustprogress nounwind uwtable
define linkonce_odr dso_local noundef zeroext i1 @_ZNK17btCollisionObject8isActiveEv(ptr noundef nonnull align 8 dereferenceable(372) %this) #1 comdat align 2 {
entry:
  %this.addr = alloca ptr, align 8
  store ptr %this, ptr %this.addr, align 8
  %this1 = load ptr, ptr %this.addr, align 8
  %call = call noundef i32 @_ZNK17btCollisionObject18getActivationStateEv(ptr noundef nonnull align 8 dereferenceable(372) %this1)
  %cmp = icmp ne i32 %call, 6
  br i1 %cmp, label %land.lhs.true, label %land.end

land.lhs.true:                                    ; preds = %entry
  %call2 = call noundef i32 @_ZNK17btCollisionObject18getActivationStateEv(ptr noundef nonnull align 8 dereferenceable(372) %this1)
  %cmp3 = icmp ne i32 %call2, 2
  br i1 %cmp3, label %land.rhs, label %land.end

land.rhs:                                         ; preds = %land.lhs.true
  %call4 = call noundef i32 @_ZNK17btCollisionObject18getActivationStateEv(ptr noundef nonnull align 8 dereferenceable(372) %this1)
  %cmp5 = icmp ne i32 %call4, 5
  br label %land.end

land.end:                                         ; preds = %land.rhs, %land.lhs.true, %entry
  %0 = phi i1 [ false, %land.lhs.true ], [ false, %entry ], [ %cmp5, %land.rhs ]
  ret i1 %0
}

; Function Attrs: mustprogress nounwind uwtable
define linkonce_odr dso_local noundef nonnull align 8 dereferenceable(8) ptr @_ZN20btAlignedObjectArrayIP11btRigidBodyEixEi(ptr noundef nonnull align 8 dereferenceable(25) %this, i32 noundef %n) #1 comdat align 2 {
entry:
  %this.addr = alloca ptr, align 8
  %n.addr = alloca i32, align 4
  store ptr %this, ptr %this.addr, align 8
  store i32 %n, ptr %n.addr, align 4
  %this1 = load ptr, ptr %this.addr, align 8
  %m_data = getelementptr inbounds %class.btAlignedObjectArray.4, ptr %this1, i32 0, i32 5
  %0 = load ptr, ptr %m_data, align 8
  %1 = load i32, ptr %n.addr, align 4
  %idxprom = sext i32 %1 to i64
  %arrayidx = getelementptr inbounds ptr, ptr %0, i64 %idxprom
  ret ptr %arrayidx
}

; Function Attrs: mustprogress nounwind uwtable
define linkonce_odr dso_local noundef i32 @_ZNK20btAlignedObjectArrayIP11btRigidBodyE4sizeEv(ptr noundef nonnull align 8 dereferenceable(25) %this) #1 comdat align 2 {
entry:
  %this.addr = alloca ptr, align 8
  store ptr %this, ptr %this.addr, align 8
  %this1 = load ptr, ptr %this.addr, align 8
  %m_size = getelementptr inbounds %class.btAlignedObjectArray.4, ptr %this1, i32 0, i32 2
  %0 = load i32, ptr %m_size, align 4
  ret i32 %0
}

; Function Attrs: mustprogress uwtable
define dso_local void @_ZN23btDiscreteDynamicsWorld10setGravityERK9btVector3(ptr noundef nonnull align 8 dereferenceable(508) %this, ptr noundef nonnull align 4 dereferenceable(16) %gravity) unnamed_addr #2 align 2 {
entry:
  %this.addr = alloca ptr, align 8
  %gravity.addr = alloca ptr, align 8
  %i = alloca i32, align 4
  %body = alloca ptr, align 8
  store ptr %this, ptr %this.addr, align 8
  store ptr %gravity, ptr %gravity.addr, align 8
  %this1 = load ptr, ptr %this.addr, align 8
  %0 = load ptr, ptr %gravity.addr, align 8
  %m_gravity = getelementptr inbounds %class.btDiscreteDynamicsWorld, ptr %this1, i32 0, i32 7
  call void @llvm.memcpy.p0.p0.i64(ptr align 8 %m_gravity, ptr align 4 %0, i64 16, i1 false)
  store i32 0, ptr %i, align 4
  br label %for.cond

for.cond:                                         ; preds = %for.inc, %entry
  %1 = load i32, ptr %i, align 4
  %m_nonStaticRigidBodies = getelementptr inbounds %class.btDiscreteDynamicsWorld, ptr %this1, i32 0, i32 6
  %call = call noundef i32 @_ZNK20btAlignedObjectArrayIP11btRigidBodyE4sizeEv(ptr noundef nonnull align 8 dereferenceable(25) %m_nonStaticRigidBodies)
  %cmp = icmp slt i32 %1, %call
  br i1 %cmp, label %for.body, label %for.end

for.body:                                         ; preds = %for.cond
  %m_nonStaticRigidBodies2 = getelementptr inbounds %class.btDiscreteDynamicsWorld, ptr %this1, i32 0, i32 6
  %2 = load i32, ptr %i, align 4
  %call3 = call noundef nonnull align 8 dereferenceable(8) ptr @_ZN20btAlignedObjectArrayIP11btRigidBodyEixEi(ptr noundef nonnull align 8 dereferenceable(25) %m_nonStaticRigidBodies2, i32 noundef %2)
  %3 = load ptr, ptr %call3, align 8
  store ptr %3, ptr %body, align 8
  %4 = load ptr, ptr %body, align 8
  %call4 = call noundef zeroext i1 @_ZNK17btCollisionObject8isActiveEv(ptr noundef nonnull align 8 dereferenceable(372) %4)
  br i1 %call4, label %land.lhs.true, label %if.end

land.lhs.true:                                    ; preds = %for.body
  %5 = load ptr, ptr %body, align 8
  %call5 = call noundef i32 @_ZNK11btRigidBody8getFlagsEv(ptr noundef nonnull align 8 dereferenceable(744) %5)
  %and = and i32 %call5, 1
  %tobool = icmp ne i32 %and, 0
  br i1 %tobool, label %if.end, label %if.then

if.then:                                          ; preds = %land.lhs.true
  %6 = load ptr, ptr %body, align 8
  %7 = load ptr, ptr %gravity.addr, align 8
  call void @_ZN11btRigidBody10setGravityERK9btVector3(ptr noundef nonnull align 8 dereferenceable(744) %6, ptr noundef nonnull align 4 dereferenceable(16) %7)
  br label %if.end

if.end:                                           ; preds = %if.then, %land.lhs.true, %for.body
  br label %for.inc

for.inc:                                          ; preds = %if.end
  %8 = load i32, ptr %i, align 4
  %inc = add nsw i32 %8, 1
  store i32 %inc, ptr %i, align 4
  br label %for.cond, !llvm.loop !15

for.end:                                          ; preds = %for.cond
  ret void
}