; Function Attrs: mustprogress uwtable
define dso_local void @_ZN23btDiscreteDynamicsWorld10setGravityERK9btVector3(ptr nocapture noundef nonnull align 8 dereferenceable(508) %this, ptr noundef nonnull align 4 dereferenceable(16) %gravity) unnamed_addr #0 align 2 {
entry:
  %m_gravity = getelementptr inbounds i8, ptr %this, i64 400
  tail call void @llvm.memcpy.p0.p0.i64(ptr noundef nonnull align 8 dereferenceable(16) %m_gravity, ptr noundef nonnull align 4 dereferenceable(16) %gravity, i64 16, i1 false)
  %m_size.i = getelementptr inbounds i8, ptr %this, i64 372
  %0 = load i32, ptr %m_size.i, align 4
  %cmp6 = icmp sgt i32 %0, 0
  br i1 %cmp6, label %for.body.lr.ph, label %for.end

for.body.lr.ph:                                   ; preds = %entry
  %m_data.i = getelementptr inbounds i8, ptr %this, i64 384
  br label %for.body

for.body:                                         ; preds = %for.body.lr.ph, %for.inc
  %1 = phi i32 [ %0, %for.body.lr.ph ], [ %6, %for.inc ]
  %indvars.iv = phi i64 [ 0, %for.body.lr.ph ], [ %indvars.iv.next, %for.inc ]
  %2 = load ptr, ptr %m_data.i, align 8
  %arrayidx.i = getelementptr inbounds ptr, ptr %2, i64 %indvars.iv
  %3 = load ptr, ptr %arrayidx.i, align 8
  %m_activationState1.i.i = getelementptr inbounds i8, ptr %3, i64 240
  %4 = load i32, ptr %m_activationState1.i.i, align 8
  switch i32 %4, label %land.lhs.true [
    i32 6, label %for.inc
    i32 2, label %for.inc
    i32 5, label %for.inc
  ]

land.lhs.true:                                    ; preds = %for.body
  %m_rigidbodyFlags.i = getelementptr inbounds i8, ptr %3, i64 632
  %5 = load i32, ptr %m_rigidbodyFlags.i, align 8
  %and = and i32 %5, 1
  %tobool.not = icmp eq i32 %and, 0
  br i1 %tobool.not, label %if.then, label %for.inc

if.then:                                          ; preds = %land.lhs.true
  tail call void @_ZN11btRigidBody10setGravityERK9btVector3(ptr noundef nonnull align 8 dereferenceable(744) %3, ptr noundef nonnull align 4 dereferenceable(16) %gravity)
  %.pre = load i32, ptr %m_size.i, align 4
  br label %for.inc

for.inc:                                          ; preds = %for.body, %for.body, %for.body, %land.lhs.true, %if.then
  %6 = phi i32 [ %1, %for.body ], [ %1, %for.body ], [ %1, %for.body ], [ %1, %land.lhs.true ], [ %.pre, %if.then ]
  %indvars.iv.next = add nuw nsw i64 %indvars.iv, 1
  %7 = sext i32 %6 to i64
  %cmp = icmp slt i64 %indvars.iv.next, %7
  br i1 %cmp, label %for.body, label %for.end, !llvm.loop !15

for.end:                                          ; preds = %for.inc, %entry
  ret void
}